target datalayout = "e-m:e-p270:32:32-p271:32:32-p272:64:64-i64:64-i128:128-f80:128-n8:16:32:64-S128"
target triple = "x86_64-pc-linux-gnu"

%struct._zend_executor_globals = type { %struct._zval_struct, %struct._zval_struct, [32 x ptr], ptr, ptr, %struct._zend_array, %struct._zend_array, ptr, i32, i8, %struct._zval_struct, i32, ptr, ptr, ptr, ptr, ptr, ptr, i64, ptr, ptr, i32, ptr, i32, i64, i32, i32, i32, i8, i8, %struct.zend_atomic_bool_s, %struct.zend_atomic_bool_s, ptr, i64, ptr, ptr, %struct._zend_array, %struct._zend_array, i32, i8, %struct._zval_struct, %struct._zval_struct, %struct._zend_stack, %struct._zend_stack, %struct._zend_stack, ptr, i32, i32, i64, ptr, ptr, ptr, %struct._zend_objects_store, %struct._zend_lazy_objects_store, ptr, ptr, ptr, [3 x %struct._zend_op], ptr, i8, i8, i64, i32, i32, ptr, [16 x %struct._HashTableIterator], ptr, %union._zend_function, %struct._zend_op, %struct._zend_array, i64, %struct.zend_get_gc_buffer, ptr, ptr, ptr, i64, i8, i32, ptr, ptr, i64, %struct._zend_call_stack, i64, i64, %struct._zend_strtod_state, [6 x ptr] }
%struct.zend_atomic_bool_s = type { i8 }
%struct._zval_struct = type { %union._zend_value, %union.anon, %union.anon.2 }
%union._zend_value = type { i64 }
%union.anon = type { i32 }
%union.anon.2 = type { i32 }
%struct._zend_stack = type { i32, i32, i32, ptr }
%struct._zend_objects_store = type { ptr, i32, i32, i32 }
%struct._zend_lazy_objects_store = type { %struct._zend_array }
%struct._HashTableIterator = type { ptr, i32, i32 }
%union._zend_function = type { %struct._zend_op_array }
%struct._zend_op_array = type { i8, [3 x i8], i32, ptr, ptr, ptr, i32, i32, ptr, ptr, ptr, ptr, i32, ptr, i32, i32, i32, ptr, ptr, ptr, ptr, ptr, i32, i32, ptr, ptr, ptr, i32, i32, i32, i32, ptr, ptr, [6 x ptr] }
%struct._zend_op = type { ptr, %union._znode_op, %union._znode_op, %union._znode_op, i32, i32, i8, i8, i8, i8 }
%union._znode_op = type { i32 }
%struct._zend_array = type { %struct._zend_refcounted_h, %union.anon.4, i32, %union.anon.6, i32, i32, i32, i32, i64, ptr }
%struct._zend_refcounted_h = type { i32, %union.anon.3 }
%union.anon.3 = type { i32 }
%union.anon.4 = type { i32 }
%union.anon.6 = type { ptr }
%struct.zend_get_gc_buffer = type { ptr, ptr, ptr }
%struct._zend_call_stack = type { ptr, i64 }
%struct._zend_strtod_state = type { [8 x ptr], ptr, ptr }
%struct._zend_class_entry = type { i8, ptr, %union.anon.8, i32, i32, i32, i32, ptr, ptr, ptr, %struct._zend_array, %struct._zend_array, %struct._zend_array, ptr, ptr, ptr, ptr, ptr, ptr, ptr, ptr, ptr, ptr, ptr, ptr, ptr, ptr, ptr, ptr, ptr, ptr, ptr, %union.anon.9, ptr, ptr, ptr, ptr, i32, i32, i32, i32, %union.anon.10, ptr, ptr, ptr, ptr, i32, ptr, ptr, %union.anon.11 }
%union.anon.8 = type { ptr }
%union.anon.9 = type { ptr }
%union.anon.10 = type { ptr }
%union.anon.11 = type { %struct.anon.12 }
%struct.anon.12 = type { ptr, i32, i32 }
%struct._zend_execute_data = type { ptr, ptr, ptr, ptr, %struct._zval_struct, ptr, ptr, ptr, ptr }
%struct._zend_string = type { %struct._zend_refcounted_h, i64, i64, [1 x i8] }
%struct.anon.0 = type { i8, i8, %union.anon.1 }
%union.anon.1 = type { i16 }
%struct._zend_object = type { %struct._zend_refcounted_h, i32, i32, ptr, ptr, ptr, [1 x %struct._zval_struct] }

@executor_globals = external global %struct._zend_executor_globals, align 8
@.str.29 = private unnamed_addr constant [59 x i8] c"Calling get_parent_class() without arguments is deprecated\00", align 1

; Function Attrs: alwaysinline nounwind uwtable
define internal zeroext i8 @zval_get_type(ptr noundef %0) #5 {
  %2 = alloca ptr, align 8
  store ptr %0, ptr %2, align 8, !tbaa !67
  %3 = load ptr, ptr %2, align 8, !tbaa !67
  %4 = getelementptr inbounds nuw %struct._zval_struct, ptr %3, i32 0, i32 1
  %5 = getelementptr inbounds nuw %struct.anon.0, ptr %4, i32 0, i32 0
  %6 = load i8, ptr %5, align 8, !tbaa !31
  ret i8 %6
}

; Function Attrs: alwaysinline nounwind uwtable
define internal i32 @zend_gc_addref(ptr noundef %0) #5 {
  %2 = alloca ptr, align 8
  store ptr %0, ptr %2, align 8, !tbaa !128
  br label %3

3:                                                ; preds = %1
  br label %4

4:                                                ; preds = %3
  %5 = load ptr, ptr %2, align 8, !tbaa !128
  %6 = getelementptr inbounds nuw %struct._zend_refcounted_h, ptr %5, i32 0, i32 0
  %7 = load i32, ptr %6, align 4, !tbaa !130
  %8 = add i32 %7, 1
  store i32 %8, ptr %6, align 4, !tbaa !130
  ret i32 %8
}

; Function Attrs: alwaysinline nounwind uwtable
define internal i32 @zval_gc_flags(i32 noundef %0) #5 {
  %2 = alloca i32, align 4
  store i32 %0, ptr %2, align 4, !tbaa !4
  %3 = load i32, ptr %2, align 4, !tbaa !4
  %4 = lshr i32 %3, 0
  %5 = and i32 %4, 1008
  ret i32 %5
}

; Function Attrs: alwaysinline nounwind uwtable
define internal zeroext i1 @zend_parse_arg_obj_or_class_name(ptr noundef %0, ptr noundef %1, i1 noundef zeroext %2) #5 {
  %4 = alloca i1, align 1
  %5 = alloca ptr, align 8
  %6 = alloca ptr, align 8
  %7 = alloca i8, align 1
  store ptr %0, ptr %5, align 8, !tbaa !67
  store ptr %1, ptr %6, align 8, !tbaa !133
  %8 = zext i1 %2 to i8
  store i8 %8, ptr %7, align 1, !tbaa !70
  %9 = load ptr, ptr %5, align 8, !tbaa !67
  %10 = call zeroext i8 @zval_get_type(ptr noundef %9)
  %11 = zext i8 %10 to i32
  %12 = icmp eq i32 %11, 6
  %13 = xor i1 %12, true
  %14 = xor i1 %13, true
  %15 = zext i1 %14 to i32
  %16 = sext i32 %15 to i64
  %17 = call i64 @llvm.expect.i64(i64 %16, i64 1)
  %18 = icmp ne i64 %17, 0
  br i1 %18, label %19, label %28

19:                                               ; preds = %3
  %20 = load ptr, ptr %5, align 8, !tbaa !67
  %21 = getelementptr inbounds nuw %struct._zval_struct, ptr %20, i32 0, i32 0
  %22 = load ptr, ptr %21, align 8, !tbaa !31
  %23 = call ptr @zend_lookup_class(ptr noundef %22)
  %24 = load ptr, ptr %6, align 8, !tbaa !133
  store ptr %23, ptr %24, align 8, !tbaa !8
  %25 = load ptr, ptr %6, align 8, !tbaa !133
  %26 = load ptr, ptr %25, align 8, !tbaa !8
  %27 = icmp ne ptr %26, null
  store i1 %27, ptr %4, align 1
  br label %66

28:                                               ; preds = %3
  %29 = load ptr, ptr %5, align 8, !tbaa !67
  %30 = call zeroext i8 @zval_get_type(ptr noundef %29)
  %31 = zext i8 %30 to i32
  %32 = icmp eq i32 %31, 8
  %33 = xor i1 %32, true
  %34 = xor i1 %33, true
  %35 = zext i1 %34 to i32
  %36 = sext i32 %35 to i64
  %37 = call i64 @llvm.expect.i64(i64 %36, i64 1)
  %38 = icmp ne i64 %37, 0
  br i1 %38, label %39, label %46

39:                                               ; preds = %28
  %40 = load ptr, ptr %5, align 8, !tbaa !67
  %41 = getelementptr inbounds nuw %struct._zval_struct, ptr %40, i32 0, i32 0
  %42 = load ptr, ptr %41, align 8, !tbaa !31
  %43 = getelementptr inbounds nuw %struct._zend_object, ptr %42, i32 0, i32 3
  %44 = load ptr, ptr %43, align 8, !tbaa !131
  %45 = load ptr, ptr %6, align 8, !tbaa !133
  store ptr %44, ptr %45, align 8, !tbaa !8
  br label %64

46:                                               ; preds = %28
  %47 = load i8, ptr %7, align 1, !tbaa !70, !range !71, !noundef !72
  %48 = trunc i8 %47 to i1
  br i1 %48, label %49, label %62

49:                                               ; preds = %46
  %50 = load ptr, ptr %5, align 8, !tbaa !67
  %51 = call zeroext i8 @zval_get_type(ptr noundef %50)
  %52 = zext i8 %51 to i32
  %53 = icmp eq i32 %52, 1
  %54 = xor i1 %53, true
  %55 = xor i1 %54, true
  %56 = zext i1 %55 to i32
  %57 = sext i32 %56 to i64
  %58 = call i64 @llvm.expect.i64(i64 %57, i64 1)
  %59 = icmp ne i64 %58, 0
  br i1 %59, label %60, label %62

60:                                               ; preds = %49
  %61 = load ptr, ptr %6, align 8, !tbaa !133
  store ptr null, ptr %61, align 8, !tbaa !8
  br label %63

62:                                               ; preds = %49, %46
  store i1 false, ptr %4, align 1
  br label %66

63:                                               ; preds = %60
  br label %64

64:                                               ; preds = %63, %39
  br label %65

65:                                               ; preds = %64
  store i1 true, ptr %4, align 1
  br label %66

66:                                               ; preds = %65, %62, %19
  %67 = load i1, ptr %4, align 1
  ret i1 %67
}

; Function Attrs: nounwind uwtable
define hidden void @zif_get_parent_class(ptr noundef %0, ptr noundef %1) #0 {
  %3 = alloca ptr, align 8
  %4 = alloca ptr, align 8
  %5 = alloca ptr, align 8
  %6 = alloca i32, align 4
  %7 = alloca i32, align 4
  %8 = alloca i32, align 4
  %9 = alloca i32, align 4
  %10 = alloca i32, align 4
  %11 = alloca ptr, align 8
  %12 = alloca ptr, align 8
  %13 = alloca i32, align 4
  %14 = alloca ptr, align 8
  %15 = alloca i8, align 1
  %16 = alloca i8, align 1
  %17 = alloca i32, align 4
  %18 = alloca i32, align 4
  %19 = alloca ptr, align 8
  %20 = alloca ptr, align 8
  store ptr %0, ptr %3, align 8, !tbaa !66
  store ptr %1, ptr %4, align 8, !tbaa !67
  call void @llvm.lifetime.start.p0(i64 8, ptr %5) #14
  store ptr null, ptr %5, align 8, !tbaa !8
  br label %21

21:                                               ; preds = %2
  call void @llvm.lifetime.start.p0(i64 4, ptr %6) #14
  store i32 0, ptr %6, align 4, !tbaa !4
  call void @llvm.lifetime.start.p0(i64 4, ptr %7) #14
  store i32 0, ptr %7, align 4, !tbaa !4
  call void @llvm.lifetime.start.p0(i64 4, ptr %8) #14
  store i32 1, ptr %8, align 4, !tbaa !4
  call void @llvm.lifetime.start.p0(i64 4, ptr %9) #14
  %22 = load ptr, ptr %3, align 8, !tbaa !66
  %23 = getelementptr inbounds nuw %struct._zend_execute_data, ptr %22, i32 0, i32 4
  %24 = getelementptr inbounds nuw %struct._zval_struct, ptr %23, i32 0, i32 2
  %25 = load i32, ptr %24, align 4, !tbaa !31
  store i32 %25, ptr %9, align 4, !tbaa !4
  call void @llvm.lifetime.start.p0(i64 4, ptr %10) #14
  store i32 0, ptr %10, align 4, !tbaa !4
  call void @llvm.lifetime.start.p0(i64 8, ptr %11) #14
  call void @llvm.lifetime.start.p0(i64 8, ptr %12) #14
  store ptr null, ptr %12, align 8, !tbaa !67
  call void @llvm.lifetime.start.p0(i64 4, ptr %13) #14
  store i32 0, ptr %13, align 4, !tbaa !4
  call void @llvm.lifetime.start.p0(i64 8, ptr %14) #14
  store ptr null, ptr %14, align 8, !tbaa !69
  call void @llvm.lifetime.start.p0(i64 1, ptr %15) #14
  store i8 0, ptr %15, align 1, !tbaa !70
  call void @llvm.lifetime.start.p0(i64 1, ptr %16) #14
  store i8 0, ptr %16, align 1, !tbaa !70
  call void @llvm.lifetime.start.p0(i64 4, ptr %17) #14
  store i32 0, ptr %17, align 4, !tbaa !4
  br label %26

26:                                               ; preds = %21
  %27 = load i32, ptr %9, align 4, !tbaa !4
  %28 = load i32, ptr %7, align 4, !tbaa !4
  %29 = icmp ult i32 %27, %28
  %30 = xor i1 %29, true
  %31 = xor i1 %30, true
  %32 = zext i1 %31 to i32
  %33 = sext i32 %32 to i64
  %34 = call i64 @llvm.expect.i64(i64 %33, i64 0)
  %35 = icmp ne i64 %34, 0
  br i1 %35, label %46, label %36

36:                                               ; preds = %26
  %37 = load i32, ptr %9, align 4, !tbaa !4
  %38 = load i32, ptr %8, align 4, !tbaa !4
  %39 = icmp ugt i32 %37, %38
  %40 = xor i1 %39, true
  %41 = xor i1 %40, true
  %42 = zext i1 %41 to i32
  %43 = sext i32 %42 to i64
  %44 = call i64 @llvm.expect.i64(i64 %43, i64 0)
  %45 = icmp ne i64 %44, 0
  br i1 %45, label %46, label %49

46:                                               ; preds = %36, %26
  %47 = load i32, ptr %7, align 4, !tbaa !4
  %48 = load i32, ptr %8, align 4, !tbaa !4
  call void @zend_wrong_parameters_count_error(i32 noundef %47, i32 noundef %48)
  store i32 1, ptr %17, align 4, !tbaa !4
  br label %112

49:                                               ; preds = %36
  %50 = load ptr, ptr %3, align 8, !tbaa !66
  %51 = getelementptr inbounds %struct._zval_struct, ptr %50, i64 4
  store ptr %51, ptr %11, align 8, !tbaa !67
  store i8 1, ptr %16, align 1, !tbaa !70
  %52 = load i32, ptr %10, align 4, !tbaa !4
  %53 = add i32 %52, 1
  store i32 %53, ptr %10, align 4, !tbaa !4
  %54 = load i32, ptr %10, align 4, !tbaa !4
  %55 = load i32, ptr %7, align 4, !tbaa !4
  %56 = icmp ule i32 %54, %55
  br i1 %56, label %62, label %57

57:                                               ; preds = %49
  %58 = load i8, ptr %16, align 1, !tbaa !70, !range !71, !noundef !72
  %59 = trunc i8 %58 to i1
  %60 = zext i1 %59 to i32
  %61 = icmp eq i32 %60, 1
  br label %62

62:                                               ; preds = %57, %49
  %63 = phi i1 [ true, %49 ], [ %61, %57 ]
  call void @llvm.assume(i1 %63)
  %64 = load i32, ptr %10, align 4, !tbaa !4
  %65 = load i32, ptr %7, align 4, !tbaa !4
  %66 = icmp ugt i32 %64, %65
  br i1 %66, label %72, label %67

67:                                               ; preds = %62
  %68 = load i8, ptr %16, align 1, !tbaa !70, !range !71, !noundef !72
  %69 = trunc i8 %68 to i1
  %70 = zext i1 %69 to i32
  %71 = icmp eq i32 %70, 0
  br label %72

72:                                               ; preds = %67, %62
  %73 = phi i1 [ true, %62 ], [ %71, %67 ]
  call void @llvm.assume(i1 %73)
  %74 = load i8, ptr %16, align 1, !tbaa !70, !range !71, !noundef !72
  %75 = trunc i8 %74 to i1
  br i1 %75, label %76, label %88

76:                                               ; preds = %72
  %77 = load i32, ptr %10, align 4, !tbaa !4
  %78 = load i32, ptr %9, align 4, !tbaa !4
  %79 = icmp ugt i32 %77, %78
  %80 = xor i1 %79, true
  %81 = xor i1 %80, true
  %82 = zext i1 %81 to i32
  %83 = sext i32 %82 to i64
  %84 = call i64 @llvm.expect.i64(i64 %83, i64 0)
  %85 = icmp ne i64 %84, 0
  br i1 %85, label %86, label %87

86:                                               ; preds = %76
  br label %112

87:                                               ; preds = %76
  br label %88

88:                                               ; preds = %87, %72
  %89 = load ptr, ptr %11, align 8, !tbaa !67
  %90 = getelementptr inbounds nuw %struct._zval_struct, ptr %89, i32 1
  store ptr %90, ptr %11, align 8, !tbaa !67
  %91 = load ptr, ptr %11, align 8, !tbaa !67
  store ptr %91, ptr %12, align 8, !tbaa !67
  %92 = load ptr, ptr %12, align 8, !tbaa !67
  %93 = call zeroext i1 @zend_parse_arg_obj_or_class_name(ptr noundef %92, ptr noundef %5, i1 noundef zeroext false)
  %94 = xor i1 %93, true
  %95 = xor i1 %94, true
  %96 = xor i1 %95, true
  %97 = zext i1 %96 to i32
  %98 = sext i32 %97 to i64
  %99 = call i64 @llvm.expect.i64(i64 %98, i64 0)
  %100 = icmp ne i64 %99, 0
  br i1 %100, label %101, label %102

101:                                              ; preds = %88
  store i32 30, ptr %13, align 4, !tbaa !4
  store i32 9, ptr %17, align 4, !tbaa !4
  br label %112

102:                                              ; preds = %88
  %103 = load i32, ptr %10, align 4, !tbaa !4
  %104 = load i32, ptr %8, align 4, !tbaa !4
  %105 = icmp eq i32 %103, %104
  br i1 %105, label %109, label %106

106:                                              ; preds = %102
  %107 = load i32, ptr %8, align 4, !tbaa !4
  %108 = icmp eq i32 %107, -1
  br label %109

109:                                              ; preds = %106, %102
  %110 = phi i1 [ true, %102 ], [ %108, %106 ]
  call void @llvm.assume(i1 %110)
  br label %111

111:                                              ; preds = %109
  br label %112

112:                                              ; preds = %111, %101, %86, %46
  %113 = load i32, ptr %17, align 4, !tbaa !4
  %114 = icmp ne i32 %113, 0
  %115 = xor i1 %114, true
  %116 = xor i1 %115, true
  %117 = zext i1 %116 to i32
  %118 = sext i32 %117 to i64
  %119 = call i64 @llvm.expect.i64(i64 %118, i64 0)
  %120 = icmp ne i64 %119, 0
  br i1 %120, label %121, label %127

121:                                              ; preds = %112
  %122 = load i32, ptr %17, align 4, !tbaa !4
  %123 = load i32, ptr %10, align 4, !tbaa !4
  %124 = load ptr, ptr %14, align 8, !tbaa !69
  %125 = load i32, ptr %13, align 4, !tbaa !4
  %126 = load ptr, ptr %12, align 8, !tbaa !67
  call void @zend_wrong_parameter_error(i32 noundef %122, i32 noundef %123, ptr noundef %124, i32 noundef %125, ptr noundef %126)
  store i32 1, ptr %18, align 4
  br label %128

127:                                              ; preds = %112
  store i32 0, ptr %18, align 4
  br label %128

128:                                              ; preds = %127, %121
  call void @llvm.lifetime.end.p0(i64 4, ptr %17) #14
  call void @llvm.lifetime.end.p0(i64 1, ptr %16) #14
  call void @llvm.lifetime.end.p0(i64 1, ptr %15) #14
  call void @llvm.lifetime.end.p0(i64 8, ptr %14) #14
  call void @llvm.lifetime.end.p0(i64 4, ptr %13) #14
  call void @llvm.lifetime.end.p0(i64 8, ptr %12) #14
  call void @llvm.lifetime.end.p0(i64 8, ptr %11) #14
  call void @llvm.lifetime.end.p0(i64 4, ptr %10) #14
  call void @llvm.lifetime.end.p0(i64 4, ptr %9) #14
  call void @llvm.lifetime.end.p0(i64 4, ptr %8) #14
  call void @llvm.lifetime.end.p0(i64 4, ptr %7) #14
  call void @llvm.lifetime.end.p0(i64 4, ptr %6) #14
  %129 = load i32, ptr %18, align 4
  switch i32 %129, label %203 [
    i32 0, label %130
  ]

130:                                              ; preds = %128
  br label %131

131:                                              ; preds = %130
  br label %132

132:                                              ; preds = %131
  %133 = load ptr, ptr %5, align 8, !tbaa !8
  %134 = icmp ne ptr %133, null
  br i1 %134, label %152, label %135

135:                                              ; preds = %132
  call void (i32, ptr, ...) @zend_error(i32 noundef 8192, ptr noundef @.str.29)
  %136 = load ptr, ptr getelementptr inbounds nuw (%struct._zend_executor_globals, ptr @executor_globals, i32 0, i32 54), align 8, !tbaa !75
  %137 = icmp ne ptr %136, null
  %138 = xor i1 %137, true
  %139 = xor i1 %138, true
  %140 = zext i1 %139 to i32
  %141 = sext i32 %140 to i64
  %142 = call i64 @llvm.expect.i64(i64 %141, i64 0)
  %143 = icmp ne i64 %142, 0
  br i1 %143, label %144, label %150

144:                                              ; preds = %135
  br label %145

145:                                              ; preds = %144
  %146 = load ptr, ptr getelementptr inbounds nuw (%struct._zend_executor_globals, ptr @executor_globals, i32 0, i32 54), align 8, !tbaa !75
  %147 = icmp ne ptr %146, null
  call void @llvm.assume(i1 %147)
  store i32 1, ptr %18, align 4
  br label %203

148:                                              ; No predecessors!
  br label %149

149:                                              ; preds = %148
  br label %150

150:                                              ; preds = %149, %135
  %151 = call ptr @zend_get_executed_scope()
  store ptr %151, ptr %5, align 8, !tbaa !8
  br label %152

152:                                              ; preds = %150, %132
  %153 = load ptr, ptr %5, align 8, !tbaa !8
  %154 = icmp ne ptr %153, null
  br i1 %154, label %155, label %193

155:                                              ; preds = %152
  %156 = load ptr, ptr %5, align 8, !tbaa !8
  %157 = getelementptr inbounds nuw %struct._zend_class_entry, ptr %156, i32 0, i32 2
  %158 = load ptr, ptr %157, align 8, !tbaa !31
  %159 = icmp ne ptr %158, null
  br i1 %159, label %160, label %193

160:                                              ; preds = %155
  br label %161

161:                                              ; preds = %160
  br label %162

162:                                              ; preds = %161
  call void @llvm.lifetime.start.p0(i64 8, ptr %19) #14
  %163 = load ptr, ptr %4, align 8, !tbaa !67
  store ptr %163, ptr %19, align 8, !tbaa !67
  call void @llvm.lifetime.start.p0(i64 8, ptr %20) #14
  %164 = load ptr, ptr %5, align 8, !tbaa !8
  %165 = getelementptr inbounds nuw %struct._zend_class_entry, ptr %164, i32 0, i32 2
  %166 = load ptr, ptr %165, align 8, !tbaa !31
  %167 = getelementptr inbounds nuw %struct._zend_class_entry, ptr %166, i32 0, i32 1
  %168 = load ptr, ptr %167, align 8, !tbaa !12
  store ptr %168, ptr %20, align 8, !tbaa !32
  %169 = load ptr, ptr %20, align 8, !tbaa !32
  %170 = load ptr, ptr %19, align 8, !tbaa !67
  %171 = getelementptr inbounds nuw %struct._zval_struct, ptr %170, i32 0, i32 0
  store ptr %169, ptr %171, align 8, !tbaa !31
  %172 = load ptr, ptr %20, align 8, !tbaa !32
  %173 = getelementptr inbounds nuw %struct._zend_string, ptr %172, i32 0, i32 0
  %174 = getelementptr inbounds nuw %struct._zend_refcounted_h, ptr %173, i32 0, i32 1
  %175 = load i32, ptr %174, align 4, !tbaa !31
  %176 = call i32 @zval_gc_flags(i32 noundef %175)
  %177 = and i32 %176, 64
  %178 = icmp ne i32 %177, 0
  br i1 %178, label %179, label %182

179:                                              ; preds = %162
  %180 = load ptr, ptr %19, align 8, !tbaa !67
  %181 = getelementptr inbounds nuw %struct._zval_struct, ptr %180, i32 0, i32 1
  store i32 6, ptr %181, align 8, !tbaa !31
  br label %188

182:                                              ; preds = %162
  %183 = load ptr, ptr %20, align 8, !tbaa !32
  %184 = getelementptr inbounds nuw %struct._zend_string, ptr %183, i32 0, i32 0
  %185 = call i32 @zend_gc_addref(ptr noundef %184)
  %186 = load ptr, ptr %19, align 8, !tbaa !67
  %187 = getelementptr inbounds nuw %struct._zval_struct, ptr %186, i32 0, i32 1
  store i32 262, ptr %187, align 8, !tbaa !31
  br label %188

188:                                              ; preds = %182, %179
  call void @llvm.lifetime.end.p0(i64 8, ptr %20) #14
  call void @llvm.lifetime.end.p0(i64 8, ptr %19) #14
  br label %189

189:                                              ; preds = %188
  br label %190

190:                                              ; preds = %189
  store i32 1, ptr %18, align 4
  br label %203

191:                                              ; No predecessors!
  br label %192

192:                                              ; preds = %191
  br label %202

193:                                              ; preds = %155, %152
  br label %194

194:                                              ; preds = %193
  br label %195

195:                                              ; preds = %194
  %196 = load ptr, ptr %4, align 8, !tbaa !67
  %197 = getelementptr inbounds nuw %struct._zval_struct, ptr %196, i32 0, i32 1
  store i32 2, ptr %197, align 8, !tbaa !31
  br label %198

198:                                              ; preds = %195
  br label %199

199:                                              ; preds = %198
  store i32 1, ptr %18, align 4
  br label %203

200:                                              ; No predecessors!
  br label %201

201:                                              ; preds = %200
  br label %202

202:                                              ; preds = %201, %192
  store i32 0, ptr %18, align 4
  br label %203

203:                                              ; preds = %202, %199, %190, %145, %128
  call void @llvm.lifetime.end.p0(i64 8, ptr %5) #14
  %204 = load i32, ptr %18, align 4
  switch i32 %204, label %206 [
    i32 0, label %205
    i32 1, label %205
  ]

205:                                              ; preds = %203, %203
  ret void

206:                                              ; preds = %203
  unreachable
}