; Function Attrs: nounwind uwtable
define hidden void @zif_get_parent_class(ptr noundef %0, ptr noundef writeonly captures(none) %1) #0 {
  %3 = getelementptr inbounds nuw i8, ptr %0, i64 44
  %4 = load i32, ptr %3, align 4, !tbaa !28
  %5 = icmp ugt i32 %4, 1
  br i1 %5, label %6, label %7, !prof !62

6:                                                ; preds = %2
  tail call void @zend_wrong_parameters_count_error(i32 noundef 0, i32 noundef 1) #14
  br label %.thread78

7:                                                ; preds = %2
  %8 = icmp eq i32 %4, 0
  br i1 %8, label %.critedge.thread, label %9, !prof !62

9:                                                ; preds = %7
  %10 = getelementptr inbounds nuw i8, ptr %0, i64 80
  %11 = getelementptr inbounds nuw i8, ptr %0, i64 88
  %12 = load i8, ptr %11, align 8, !tbaa !28
  switch i8 %12, label %.thread78 [
    i8 6, label %zend_parse_arg_obj_or_class_name.exit
    i8 8, label %.critedge
  ], !prof !63

zend_parse_arg_obj_or_class_name.exit:            ; preds = %9
  %13 = load ptr, ptr %10, align 8, !tbaa !28
  %14 = tail call ptr @zend_lookup_class(ptr noundef %13) #14
  %.fr = freeze ptr %14
  %.not = icmp eq ptr %.fr, null
  br i1 %.not, label %.thread78, label %.thread99, !prof !120

.thread78:                                        ; preds = %zend_parse_arg_obj_or_class_name.exit, %9, %6
  %.088 = phi i32 [ 0, %6 ], [ 1, %9 ], [ 1, %zend_parse_arg_obj_or_class_name.exit ]
  %.03987 = phi i32 [ 1, %6 ], [ 9, %9 ], [ 9, %zend_parse_arg_obj_or_class_name.exit ]
  %.04086 = phi ptr [ null, %6 ], [ %10, %9 ], [ %10, %zend_parse_arg_obj_or_class_name.exit ]
  %.04185 = phi i32 [ 0, %6 ], [ 30, %9 ], [ 30, %zend_parse_arg_obj_or_class_name.exit ]
  tail call void @zend_wrong_parameter_error(i32 noundef %.03987, i32 noundef %.088, ptr noundef null, i32 noundef %.04185, ptr noundef %.04086) #14
  br label %37

.critedge:                                        ; preds = %9
  %15 = load ptr, ptr %10, align 8, !tbaa !28
  %16 = getelementptr inbounds nuw i8, ptr %15, i64 16
  %17 = load ptr, ptr %16, align 8, !tbaa !118
  %.not45 = icmp eq ptr %17, null
  br i1 %.not45, label %.critedge.thread, label %.thread99

.critedge.thread:                                 ; preds = %7, %.critedge
  tail call void (i32, ptr, ...) @zend_error(i32 noundef 8192, ptr noundef nonnull @.str.29) #14
  %18 = load ptr, ptr getelementptr inbounds nuw (i8, ptr @executor_globals, i64 960), align 8, !tbaa !67
  %.not46 = icmp eq ptr %18, null
  br i1 %.not46, label %19, label %37, !prof !69

19:                                               ; preds = %.critedge.thread
  %20 = tail call ptr @zend_get_executed_scope() #14
  %.not47 = icmp eq ptr %20, null
  br i1 %.not47, label %35, label %.thread99

.thread99:                                        ; preds = %zend_parse_arg_obj_or_class_name.exit, %.critedge, %19
  %.1102 = phi ptr [ %20, %19 ], [ %17, %.critedge ], [ %.fr, %zend_parse_arg_obj_or_class_name.exit ]
  %21 = getelementptr inbounds nuw i8, ptr %.1102, i64 16
  %22 = load ptr, ptr %21, align 8, !tbaa !28
  %.not48 = icmp eq ptr %22, null
  br i1 %.not48, label %35, label %23

23:                                               ; preds = %.thread99
  %24 = getelementptr inbounds nuw i8, ptr %22, i64 8
  %25 = load ptr, ptr %24, align 8, !tbaa !8
  store ptr %25, ptr %1, align 8, !tbaa !28
  %26 = getelementptr inbounds nuw i8, ptr %25, i64 4
  %27 = load i32, ptr %26, align 4, !tbaa !28
  %28 = and i32 %27, 64
  %.not49 = icmp eq i32 %28, 0
  br i1 %.not49, label %31, label %29

29:                                               ; preds = %23
  %30 = getelementptr inbounds nuw i8, ptr %1, i64 8
  store i32 6, ptr %30, align 8, !tbaa !28
  br label %37

31:                                               ; preds = %23
  %32 = load i32, ptr %25, align 4, !tbaa !30
  %33 = add i32 %32, 1
  store i32 %33, ptr %25, align 4, !tbaa !30
  %34 = getelementptr inbounds nuw i8, ptr %1, i64 8
  store i32 262, ptr %34, align 8, !tbaa !28
  br label %37

35:                                               ; preds = %.thread99, %19
  %36 = getelementptr inbounds nuw i8, ptr %1, i64 8
  store i32 2, ptr %36, align 8, !tbaa !28
  br label %37

37:                                               ; preds = %.thread78, %29, %31, %.critedge.thread, %35
  ret void
}